target datalayout = "e-m:e-p270:32:32-p271:32:32-p272:64:64-i64:64-i128:128-f80:128-n8:16:32:64-S128"
target triple = "x86_64-pc-linux-gnu"

%struct.pmix_proc = type { [256 x i8], i32 }

@.str = private unnamed_addr constant [2 x i8] c" \00", align 1
@.str.78 = private unnamed_addr constant [27 x i8] c"%sPROC: %s:PMIX_RANK_UNDEF\00", align 1
@.str.79 = private unnamed_addr constant [30 x i8] c"%sPROC: %s:PMIX_RANK_WILDCARD\00", align 1
@.str.80 = private unnamed_addr constant [32 x i8] c"%sPROC: %s:PMIX_RANK_LOCAL_NODE\00", align 1
@.str.81 = private unnamed_addr constant [15 x i8] c"%sPROC: %s:%lu\00", align 1

; Function Attrs: nounwind uwtable
define i32 @pmix20_bfrop_print_proc(ptr noundef %0, ptr noundef %1, ptr noundef %2, i16 noundef zeroext %3) #0 {
  %5 = alloca i32, align 4
  %6 = alloca ptr, align 8
  %7 = alloca ptr, align 8
  %8 = alloca ptr, align 8
  %9 = alloca i16, align 2
  %10 = alloca ptr, align 8
  %11 = alloca i32, align 4
  %12 = alloca i32, align 4
  store ptr %0, ptr %6, align 8, !tbaa !3
  store ptr %1, ptr %7, align 8, !tbaa !8
  store ptr %2, ptr %8, align 8, !tbaa !72
  store i16 %3, ptr %9, align 2, !tbaa !11
  call void @llvm.lifetime.start.p0(i64 8, ptr %10) #7
  call void @llvm.lifetime.start.p0(i64 4, ptr %11) #7
  %13 = load ptr, ptr %7, align 8, !tbaa !8
  %14 = icmp eq ptr null, %13
  br i1 %14, label %15, label %20

15:                                               ; preds = %4
  %16 = call i32 (ptr, ptr, ...) @asprintf(ptr noundef %10, ptr noundef @.str) #7
  %17 = icmp sgt i32 0, %16
  br i1 %17, label %18, label %19

18:                                               ; preds = %15
  store i32 -32, ptr %5, align 4
  store i32 1, ptr %12, align 4
  br label %69

19:                                               ; preds = %15
  br label %22

20:                                               ; preds = %4
  %21 = load ptr, ptr %7, align 8, !tbaa !8
  store ptr %21, ptr %10, align 8, !tbaa !8
  br label %22

22:                                               ; preds = %20, %19
  %23 = load ptr, ptr %8, align 8, !tbaa !72
  %24 = getelementptr inbounds nuw %struct.pmix_proc, ptr %23, i32 0, i32 1
  %25 = load i32, ptr %24, align 4, !tbaa !57
  switch i32 %25, label %47 [
    i32 -1, label %26
    i32 -2, label %33
    i32 -3, label %40
  ]

26:                                               ; preds = %22
  %27 = load ptr, ptr %6, align 8, !tbaa !3
  %28 = load ptr, ptr %10, align 8, !tbaa !8
  %29 = load ptr, ptr %8, align 8, !tbaa !72
  %30 = getelementptr inbounds nuw %struct.pmix_proc, ptr %29, i32 0, i32 0
  %31 = getelementptr inbounds [256 x i8], ptr %30, i64 0, i64 0
  %32 = call i32 (ptr, ptr, ...) @asprintf(ptr noundef %27, ptr noundef @.str.78, ptr noundef %28, ptr noundef %31) #7
  store i32 %32, ptr %11, align 4, !tbaa !21
  br label %58

33:                                               ; preds = %22
  %34 = load ptr, ptr %6, align 8, !tbaa !3
  %35 = load ptr, ptr %10, align 8, !tbaa !8
  %36 = load ptr, ptr %8, align 8, !tbaa !72
  %37 = getelementptr inbounds nuw %struct.pmix_proc, ptr %36, i32 0, i32 0
  %38 = getelementptr inbounds [256 x i8], ptr %37, i64 0, i64 0
  %39 = call i32 (ptr, ptr, ...) @asprintf(ptr noundef %34, ptr noundef @.str.79, ptr noundef %35, ptr noundef %38) #7
  store i32 %39, ptr %11, align 4, !tbaa !21
  br label %58

40:                                               ; preds = %22
  %41 = load ptr, ptr %6, align 8, !tbaa !3
  %42 = load ptr, ptr %10, align 8, !tbaa !8
  %43 = load ptr, ptr %8, align 8, !tbaa !72
  %44 = getelementptr inbounds nuw %struct.pmix_proc, ptr %43, i32 0, i32 0
  %45 = getelementptr inbounds [256 x i8], ptr %44, i64 0, i64 0
  %46 = call i32 (ptr, ptr, ...) @asprintf(ptr noundef %41, ptr noundef @.str.80, ptr noundef %42, ptr noundef %45) #7
  store i32 %46, ptr %11, align 4, !tbaa !21
  br label %58

47:                                               ; preds = %22
  %48 = load ptr, ptr %6, align 8, !tbaa !3
  %49 = load ptr, ptr %10, align 8, !tbaa !8
  %50 = load ptr, ptr %8, align 8, !tbaa !72
  %51 = getelementptr inbounds nuw %struct.pmix_proc, ptr %50, i32 0, i32 0
  %52 = getelementptr inbounds [256 x i8], ptr %51, i64 0, i64 0
  %53 = load ptr, ptr %8, align 8, !tbaa !72
  %54 = getelementptr inbounds nuw %struct.pmix_proc, ptr %53, i32 0, i32 1
  %55 = load i32, ptr %54, align 4, !tbaa !57
  %56 = zext i32 %55 to i64
  %57 = call i32 (ptr, ptr, ...) @asprintf(ptr noundef %48, ptr noundef @.str.81, ptr noundef %49, ptr noundef %52, i64 noundef %56) #7
  store i32 %57, ptr %11, align 4, !tbaa !21
  br label %58

58:                                               ; preds = %47, %40, %33, %26
  %59 = load ptr, ptr %10, align 8, !tbaa !8
  %60 = load ptr, ptr %7, align 8, !tbaa !8
  %61 = icmp ne ptr %59, %60
  br i1 %61, label %62, label %64

62:                                               ; preds = %58
  %63 = load ptr, ptr %10, align 8, !tbaa !8
  call void @free(ptr noundef %63) #7
  br label %64

64:                                               ; preds = %62, %58
  %65 = load i32, ptr %11, align 4, !tbaa !21
  %66 = icmp sgt i32 0, %65
  br i1 %66, label %67, label %68

67:                                               ; preds = %64
  store i32 -32, ptr %5, align 4
  store i32 1, ptr %12, align 4
  br label %69

68:                                               ; preds = %64
  store i32 0, ptr %5, align 4
  store i32 1, ptr %12, align 4
  br label %69

69:                                               ; preds = %68, %67, %18
  call void @llvm.lifetime.end.p0(i64 4, ptr %11) #7
  call void @llvm.lifetime.end.p0(i64 8, ptr %10) #7
  %70 = load i32, ptr %5, align 4
  ret i32 %70
}