; Function Attrs: nounwind uwtable
define range(i32 -32, 1) i32 @pmix20_bfrop_print_proc(ptr noundef %0, ptr noundef %1, ptr noundef %2, i16 zeroext %3) local_unnamed_addr #0 {
  %5 = alloca ptr, align 8
  call void @llvm.lifetime.start.p0(i64 8, ptr nonnull %5) #7
  %6 = icmp eq ptr %1, null
  br i1 %6, label %7, label %10

7:                                                ; preds = %4
  %8 = call i32 (ptr, ptr, ...) @asprintf(ptr noundef nonnull %5, ptr noundef nonnull @.str) #7
  %9 = icmp slt i32 %8, 0
  br i1 %9, label %29, label %11

10:                                               ; preds = %4
  store ptr %1, ptr %5, align 8, !tbaa !20
  br label %11

11:                                               ; preds = %7, %10
  %12 = getelementptr inbounds nuw i8, ptr %2, i64 256
  %13 = load i32, ptr %12, align 4, !tbaa !39
  %14 = load ptr, ptr %5, align 8, !tbaa !20
  switch i32 %13, label %21 [
    i32 -1, label %15
    i32 -2, label %17
    i32 -3, label %19
  ]

15:                                               ; preds = %11
  %16 = call i32 (ptr, ptr, ...) @asprintf(ptr noundef %0, ptr noundef nonnull @.str.78, ptr noundef %14, ptr noundef nonnull %2) #7
  br label %24

17:                                               ; preds = %11
  %18 = call i32 (ptr, ptr, ...) @asprintf(ptr noundef %0, ptr noundef nonnull @.str.79, ptr noundef %14, ptr noundef nonnull %2) #7
  br label %24

19:                                               ; preds = %11
  %20 = call i32 (ptr, ptr, ...) @asprintf(ptr noundef %0, ptr noundef nonnull @.str.80, ptr noundef %14, ptr noundef nonnull %2) #7
  br label %24

21:                                               ; preds = %11
  %22 = zext i32 %13 to i64
  %23 = call i32 (ptr, ptr, ...) @asprintf(ptr noundef %0, ptr noundef nonnull @.str.81, ptr noundef %14, ptr noundef nonnull %2, i64 noundef %22) #7
  br label %24

24:                                               ; preds = %21, %19, %17, %15
  %.0 = phi i32 [ %23, %21 ], [ %20, %19 ], [ %18, %17 ], [ %16, %15 ]
  %25 = load ptr, ptr %5, align 8, !tbaa !20
  %.not = icmp eq ptr %25, %1
  br i1 %.not, label %27, label %26

26:                                               ; preds = %24
  call void @free(ptr noundef %25) #7
  br label %27

27:                                               ; preds = %26, %24
  %28 = icmp slt i32 %.0, 0
  %. = select i1 %28, i32 -32, i32 0
  br label %29

29:                                               ; preds = %27, %7
  %.014 = phi i32 [ -32, %7 ], [ %., %27 ]
  call void @llvm.lifetime.end.p0(i64 8, ptr nonnull %5) #7
  ret i32 %.014
}